target datalayout = "e-m:e-p270:32:32-p271:32:32-p272:64:64-i64:64-i128:128-f80:128-n8:16:32:64-S128"
target triple = "x86_64-pc-linux-gnu"

@.str.16 = private unnamed_addr constant [8 x i8] c"file://\00", align 1
@.str.18 = private unnamed_addr constant [3 x i8] c"%s\00", align 1

; Function Attrs: nounwind uwtable
define internal i32 @php_plain_files_rmdir(ptr noundef %0, ptr noundef %1, i32 noundef %2, ptr noundef %3) #0 {
  %5 = alloca i32, align 4
  %6 = alloca ptr, align 8
  %7 = alloca ptr, align 8
  %8 = alloca i32, align 4
  %9 = alloca ptr, align 8
  store ptr %0, ptr %6, align 8, !tbaa !71
  store ptr %1, ptr %7, align 8, !tbaa !4
  store i32 %2, ptr %8, align 4, !tbaa !12
  store ptr %3, ptr %9, align 8, !tbaa !72
  %10 = load ptr, ptr %7, align 8, !tbaa !4
  %11 = call i32 @strncasecmp(ptr noundef %10, ptr noundef @.str.16, i64 noundef 7) #14
  %12 = icmp eq i32 %11, 0
  br i1 %12, label %13, label %16

13:                                               ; preds = %4
  %14 = load ptr, ptr %7, align 8, !tbaa !4
  %15 = getelementptr inbounds nuw i8, ptr %14, i64 7
  store ptr %15, ptr %7, align 8, !tbaa !4
  br label %16

16:                                               ; preds = %13, %4
  %17 = load ptr, ptr %7, align 8, !tbaa !4
  %18 = call i32 @php_check_open_basedir(ptr noundef %17)
  %19 = icmp ne i32 %18, 0
  br i1 %19, label %20, label %21

20:                                               ; preds = %16
  store i32 0, ptr %5, align 4
  br label %31

21:                                               ; preds = %16
  %22 = load ptr, ptr %7, align 8, !tbaa !4
  %23 = call i32 @rmdir(ptr noundef %22) #13
  %24 = icmp slt i32 %23, 0
  br i1 %24, label %25, label %30

25:                                               ; preds = %21
  %26 = load ptr, ptr %7, align 8, !tbaa !4
  %27 = call ptr @__errno_location() #16
  %28 = load i32, ptr %27, align 4, !tbaa !12
  %29 = call ptr @strerror(i32 noundef %28) #13
  call void (ptr, ptr, i32, ptr, ...) @php_error_docref1(ptr noundef null, ptr noundef %26, i32 noundef 2, ptr noundef @.str.18, ptr noundef %29)
  store i32 0, ptr %5, align 4
  br label %31

30:                                               ; preds = %21
  call void @php_clear_stat_cache(i1 noundef zeroext true, ptr noundef null, i64 noundef 0)
  store i32 1, ptr %5, align 4
  br label %31

31:                                               ; preds = %30, %25, %20
  %32 = load i32, ptr %5, align 4
  ret i32 %32
}