; Function Attrs: nounwind uwtable
define internal range(i32 0, 2) i32 @php_plain_files_rmdir(ptr readnone captures(none) %0, ptr noundef %1, i32 %2, ptr readnone captures(none) %3) #3 {
  %5 = tail call i32 @strncasecmp(ptr noundef %1, ptr noundef nonnull @.str.16, i64 noundef 7) #16
  %6 = icmp eq i32 %5, 0
  %spec.select.idx = select i1 %6, i64 7, i64 0
  %spec.select = getelementptr inbounds nuw i8, ptr %1, i64 %spec.select.idx
  %7 = tail call i32 @php_check_open_basedir(ptr noundef %spec.select) #17
  %.not = icmp eq i32 %7, 0
  br i1 %.not, label %8, label %16

8:                                                ; preds = %4
  %9 = tail call i32 @rmdir(ptr noundef %spec.select) #17
  %10 = icmp slt i32 %9, 0
  br i1 %10, label %11, label %15

11:                                               ; preds = %8
  %12 = tail call ptr @__errno_location() #19
  %13 = load i32, ptr %12, align 4, !tbaa !7
  %14 = tail call ptr @strerror(i32 noundef %13) #17
  tail call void (ptr, ptr, i32, ptr, ...) @php_error_docref1(ptr noundef null, ptr noundef %spec.select, i32 noundef 2, ptr noundef nonnull @.str.18, ptr noundef %14) #17
  br label %16

15:                                               ; preds = %8
  tail call void @php_clear_stat_cache(i1 noundef zeroext true, ptr noundef null, i64 noundef 0) #17
  br label %16

16:                                               ; preds = %4, %15, %11
  %.0 = phi i32 [ 0, %11 ], [ 1, %15 ], [ 0, %4 ]
  ret i32 %.0
}